target datalayout = "e-m:e-p270:32:32-p271:32:32-p272:64:64-i64:64-i128:128-f80:128-n8:16:32:64-S128"
target triple = "x86_64-pc-linux-gnu"

%struct._fvalue_t = type { ptr, %union.anon.1 }
%union.anon.1 = type { %struct._protocol_value_t }
%struct._protocol_value_t = type { ptr, i32, ptr, i8 }

; Function Attrs: null_pointer_is_valid sspstrong uwtable
define internal i32 @val_hash(ptr noundef %0) #0 {
  %2 = alloca ptr, align 8
  %3 = alloca ptr, align 8
  store ptr %0, ptr %2, align 8
  call void @llvm.lifetime.start.p0(i64 8, ptr %3) #9
  %4 = load ptr, ptr %2, align 8
  %5 = getelementptr inbounds nuw %struct._fvalue_t, ptr %4, i32 0, i32 1
  store ptr %5, ptr %3, align 8
  %6 = load ptr, ptr %3, align 8
  %7 = getelementptr inbounds nuw %struct._protocol_value_t, ptr %6, i32 0, i32 0
  %8 = load ptr, ptr %7, align 8
  %9 = call i32 @g_direct_hash(ptr noundef %8) #14
  %10 = load ptr, ptr %3, align 8
  %11 = getelementptr inbounds nuw %struct._protocol_value_t, ptr %10, i32 0, i32 1
  %12 = call i32 @g_int_hash(ptr noundef %11)
  %13 = xor i32 %9, %12
  %14 = load ptr, ptr %3, align 8
  %15 = getelementptr inbounds nuw %struct._protocol_value_t, ptr %14, i32 0, i32 2
  %16 = load ptr, ptr %15, align 8
  %17 = call i32 @g_str_hash(ptr noundef %16)
  %18 = xor i32 %13, %17
  call void @llvm.lifetime.end.p0(i64 8, ptr %3) #9
  ret i32 %18
}