; Function Attrs: null_pointer_is_valid sspstrong uwtable
define internal i32 @val_hash(ptr noundef %0) #0 {
  %2 = getelementptr inbounds nuw i8, ptr %0, i64 8
  %3 = load ptr, ptr %2, align 8
  %4 = tail call i32 @g_direct_hash(ptr noundef %3) #15
  %5 = getelementptr inbounds nuw i8, ptr %0, i64 16
  %6 = tail call i32 @g_int_hash(ptr noundef nonnull %5)
  %7 = xor i32 %6, %4
  %8 = getelementptr inbounds nuw i8, ptr %0, i64 24
  %9 = load ptr, ptr %8, align 8
  %10 = tail call i32 @g_str_hash(ptr noundef %9)
  %11 = xor i32 %7, %10
  ret i32 %11
}